; Function Attrs: nounwind uwtable
define hidden range(i32 0, 44) i32 @Curl_setblobopt(ptr noundef captures(none) %0, ptr noundef readonly %1) local_unnamed_addr #0 {
  %3 = load ptr, ptr @Curl_cfree, align 8, !tbaa !3
  %4 = load ptr, ptr %0, align 8, !tbaa !9
  tail call void %3(ptr noundef %4) #10
  store ptr null, ptr %0, align 8, !tbaa !9
  %.not = icmp eq ptr %1, null
  br i1 %.not, label %24, label %5

5:                                                ; preds = %2
  %6 = getelementptr inbounds nuw i8, ptr %1, i64 8
  %7 = load i64, ptr %6, align 8, !tbaa !11
  %8 = icmp ugt i64 %7, 8000000
  br i1 %8, label %24, label %9

9:                                                ; preds = %5
  %10 = load ptr, ptr @Curl_cmalloc, align 8, !tbaa !3
  %11 = getelementptr inbounds nuw i8, ptr %1, i64 16
  %12 = load i32, ptr %11, align 8, !tbaa !15
  %13 = and i32 %12, 1
  %.not20 = icmp eq i32 %13, 0
  %14 = add nuw nsw i64 %7, 24
  %spec.select = select i1 %.not20, i64 24, i64 %14
  %15 = tail call ptr %10(i64 noundef %spec.select) #10
  %.not21 = icmp eq ptr %15, null
  br i1 %.not21, label %24, label %16

16:                                               ; preds = %9
  tail call void @llvm.memcpy.p0.p0.i64(ptr noundef nonnull align 8 dereferenceable(24) %15, ptr noundef nonnull align 8 dereferenceable(24) %1, i64 24, i1 false), !tbaa.struct !16
  %17 = load i32, ptr %11, align 8, !tbaa !15
  %18 = and i32 %17, 1
  %.not22 = icmp eq i32 %18, 0
  br i1 %.not22, label %23, label %19

19:                                               ; preds = %16
  %20 = getelementptr inbounds nuw i8, ptr %15, i64 24
  store ptr %20, ptr %15, align 8, !tbaa !19
  %21 = load ptr, ptr %1, align 8, !tbaa !19
  %22 = load i64, ptr %6, align 8, !tbaa !11
  tail call void @llvm.memcpy.p0.p0.i64(ptr nonnull align 1 %20, ptr align 1 %21, i64 %22, i1 false)
  br label %23

23:                                               ; preds = %19, %16
  store ptr %15, ptr %0, align 8, !tbaa !9
  br label %24

24:                                               ; preds = %2, %23, %5, %9
  %.1 = phi i32 [ 0, %23 ], [ 43, %5 ], [ 27, %9 ], [ 0, %2 ]
  ret i32 %.1
}